; Function Attrs: nounwind uwtable
define ptr @l___private_Lean_Meta_Tactic_Grind_EMatch_0__Lean_Meta_Grind_EMatch_annotateMatchEqnType(ptr noundef %0, ptr noundef %1, ptr noundef %2, ptr noundef %3, ptr noundef %4, ptr noundef %5, ptr noundef %6, ptr noundef %7, ptr noundef %8, ptr noundef %9, ptr noundef %10, ptr noundef %11, ptr noundef %12) local_unnamed_addr #0 {
  tail call void @lean_inc_heartbeat() #5
  %14 = tail call noalias ptr @mi_malloc_small(i64 noundef 32) #5
  %15 = icmp eq ptr %14, null
  br i1 %15, label %16, label %lean_alloc_closure.exit

16:                                               ; preds = %13
  tail call void @lean_internal_panic_out_of_memory() #6
  unreachable

lean_alloc_closure.exit:                          ; preds = %13
  %17 = getelementptr inbounds nuw i8, ptr %14, i64 4
  store i32 1, ptr %14, align 4, !tbaa !8
  store i32 -184549344, ptr %17, align 4
  %18 = getelementptr inbounds nuw i8, ptr %14, i64 8
  store ptr @l___private_Lean_Meta_Tactic_Grind_EMatch_0__Lean_Meta_Grind_EMatch_annotateMatchEqnType___lambda__3___boxed, ptr %18, align 8, !tbaa !4
  %19 = getelementptr inbounds nuw i8, ptr %14, i64 16
  store i16 13, ptr %19, align 8, !tbaa !14
  %20 = getelementptr inbounds nuw i8, ptr %14, i64 18
  store i16 1, ptr %20, align 2, !tbaa !14
  %21 = getelementptr inbounds nuw i8, ptr %14, i64 24
  store ptr %1, ptr %21, align 8, !tbaa !4
  %22 = tail call ptr @l___private_Lean_Meta_Tactic_Grind_EMatch_0__Lean_Meta_Grind_EMatch_annotateEqnTypeConds(ptr noundef %0, ptr noundef nonnull %14, ptr noundef %2, ptr noundef %3, ptr noundef %4, ptr noundef %5, ptr noundef %6, ptr noundef %7, ptr noundef %8, ptr noundef %9, ptr noundef %10, ptr noundef %11, ptr noundef %12)
  ret ptr %22
}